
Attiny1624-Dummy-Usart-Data.elf:     file format elf32-avr

Sections:
Idx Name          Size      VMA       LMA       File off  Algn
  0 .data         00000008  00803800  00000b69  00000c1d  2**0
                  CONTENTS, ALLOC, LOAD, DATA
  1 .text         00000a4e  00000000  00000000  000000b4  2**1
                  CONTENTS, ALLOC, LOAD, READONLY, CODE
  2 .rodata       0000011b  00008a4e  00000a4e  00000b02  2**0
                  CONTENTS, ALLOC, LOAD, READONLY, DATA
  3 .bss          00000008  00803808  00803808  00000c25  2**0
                  ALLOC
  4 .comment      0000005c  00000000  00000000  00000c25  2**0
                  CONTENTS, READONLY
  5 .note.gnu.avr.deviceinfo 00000040  00000000  00000000  00000c84  2**2
                  CONTENTS, READONLY
  6 .debug_aranges 000000e0  00000000  00000000  00000cc8  2**3
                  CONTENTS, READONLY, DEBUGGING
  7 .debug_info   000028d0  00000000  00000000  00000da8  2**0
                  CONTENTS, READONLY, DEBUGGING
  8 .debug_abbrev 00001f3c  00000000  00000000  00003678  2**0
                  CONTENTS, READONLY, DEBUGGING
  9 .debug_line   000008ee  00000000  00000000  000055b4  2**0
                  CONTENTS, READONLY, DEBUGGING
 10 .debug_frame  000001d8  00000000  00000000  00005ea4  2**2
                  CONTENTS, READONLY, DEBUGGING
 11 .debug_str    000014a7  00000000  00000000  0000607c  2**0
                  CONTENTS, READONLY, DEBUGGING
 12 .debug_loc    0000060a  00000000  00000000  00007523  2**0
                  CONTENTS, READONLY, DEBUGGING
 13 .debug_ranges 00000070  00000000  00000000  00007b2d  2**0
                  CONTENTS, READONLY, DEBUGGING

Disassembly of section .text:

00000000 <__vectors>:
   0:	0c 94 3c 00 	jmp	0x78	; 0x78 <__ctors_end>
   4:	0c 94 59 00 	jmp	0xb2	; 0xb2 <__bad_interrupt>
   8:	0c 94 59 00 	jmp	0xb2	; 0xb2 <__bad_interrupt>
   c:	0c 94 59 00 	jmp	0xb2	; 0xb2 <__bad_interrupt>
  10:	0c 94 59 00 	jmp	0xb2	; 0xb2 <__bad_interrupt>
  14:	0c 94 59 00 	jmp	0xb2	; 0xb2 <__bad_interrupt>
  18:	0c 94 59 00 	jmp	0xb2	; 0xb2 <__bad_interrupt>
  1c:	0c 94 59 00 	jmp	0xb2	; 0xb2 <__bad_interrupt>
  20:	0c 94 59 00 	jmp	0xb2	; 0xb2 <__bad_interrupt>
  24:	0c 94 59 00 	jmp	0xb2	; 0xb2 <__bad_interrupt>
  28:	0c 94 59 00 	jmp	0xb2	; 0xb2 <__bad_interrupt>
  2c:	0c 94 59 00 	jmp	0xb2	; 0xb2 <__bad_interrupt>
  30:	0c 94 59 00 	jmp	0xb2	; 0xb2 <__bad_interrupt>
  34:	0c 94 59 00 	jmp	0xb2	; 0xb2 <__bad_interrupt>
  38:	0c 94 59 00 	jmp	0xb2	; 0xb2 <__bad_interrupt>
  3c:	0c 94 59 00 	jmp	0xb2	; 0xb2 <__bad_interrupt>
  40:	0c 94 59 00 	jmp	0xb2	; 0xb2 <__bad_interrupt>
  44:	0c 94 59 00 	jmp	0xb2	; 0xb2 <__bad_interrupt>
  48:	0c 94 59 00 	jmp	0xb2	; 0xb2 <__bad_interrupt>
  4c:	0c 94 59 00 	jmp	0xb2	; 0xb2 <__bad_interrupt>
  50:	0c 94 59 00 	jmp	0xb2	; 0xb2 <__bad_interrupt>
  54:	0c 94 59 00 	jmp	0xb2	; 0xb2 <__bad_interrupt>
  58:	0c 94 59 00 	jmp	0xb2	; 0xb2 <__bad_interrupt>
  5c:	0c 94 59 00 	jmp	0xb2	; 0xb2 <__bad_interrupt>
  60:	0c 94 59 00 	jmp	0xb2	; 0xb2 <__bad_interrupt>
  64:	0c 94 59 00 	jmp	0xb2	; 0xb2 <__bad_interrupt>
  68:	0c 94 59 00 	jmp	0xb2	; 0xb2 <__bad_interrupt>
  6c:	0c 94 59 00 	jmp	0xb2	; 0xb2 <__bad_interrupt>
  70:	0c 94 59 00 	jmp	0xb2	; 0xb2 <__bad_interrupt>
  74:	0c 94 59 00 	jmp	0xb2	; 0xb2 <__bad_interrupt>

00000078 <__ctors_end>:
  78:	11 24       	eor	r1, r1
  7a:	1f be       	out	0x3f, r1	; 63
  7c:	cf ef       	ldi	r28, 0xFF	; 255
  7e:	cd bf       	out	0x3d, r28	; 61
  80:	df e3       	ldi	r29, 0x3F	; 63
  82:	de bf       	out	0x3e, r29	; 62

00000084 <__do_copy_data>:
  84:	18 e3       	ldi	r17, 0x38	; 56
  86:	a0 e0       	ldi	r26, 0x00	; 0
  88:	b8 e3       	ldi	r27, 0x38	; 56
  8a:	e9 e6       	ldi	r30, 0x69	; 105
  8c:	fb e0       	ldi	r31, 0x0B	; 11
  8e:	02 c0       	rjmp	.+4      	; 0x94 <__do_copy_data+0x10>
  90:	05 90       	lpm	r0, Z+
  92:	0d 92       	st	X+, r0
  94:	a8 30       	cpi	r26, 0x08	; 8
  96:	b1 07       	cpc	r27, r17
  98:	d9 f7       	brne	.-10     	; 0x90 <__do_copy_data+0xc>

0000009a <__do_clear_bss>:
  9a:	28 e3       	ldi	r18, 0x38	; 56
  9c:	a8 e0       	ldi	r26, 0x08	; 8
  9e:	b8 e3       	ldi	r27, 0x38	; 56
  a0:	01 c0       	rjmp	.+2      	; 0xa4 <.do_clear_bss_start>

000000a2 <.do_clear_bss_loop>:
  a2:	1d 92       	st	X+, r1

000000a4 <.do_clear_bss_start>:
  a4:	a0 31       	cpi	r26, 0x10	; 16
  a6:	b2 07       	cpc	r27, r18
  a8:	e1 f7       	brne	.-8      	; 0xa2 <.do_clear_bss_loop>
  aa:	0e 94 fa 00 	call	0x1f4	; 0x1f4 <main>
  ae:	0c 94 25 05 	jmp	0xa4a	; 0xa4a <_exit>

000000b2 <__bad_interrupt>:
  b2:	0c 94 00 00 	jmp	0	; 0x0 <__vectors>

000000b6 <CLOCK_INHF_clock_init>:
 * - Disables the clock prescaler to achieve full-speed operation.
 * - Waits for the oscillator configuration to stabilize before exiting.
 */
void CLOCK_INHF_clock_init() {
    /* Enable the internal oscillator with a frequency of 20 MHz. */
    ccp_write_io((uint8_t *) &CLKCTRL.MCLKCTRLA, CLKCTRL_CLKSEL_OSC20M_gc /*| CLKCTRL_CLKOUT_bm*/); 
  b6:	60 e0       	ldi	r22, 0x00	; 0
  b8:	80 e6       	ldi	r24, 0x60	; 96
  ba:	90 e0       	ldi	r25, 0x00	; 0
  bc:	0e 94 ee 04 	call	0x9dc	; 0x9dc <ccp_write_io>
    // For SO14, it is impossible to enable CLKOUT due to the lack of a dedicated pin.

    /* Disable the main clock prescaler for full-speed operation. */
    ccp_write_io((uint8_t *) &CLKCTRL.MCLKCTRLB, CLKCTRL_PDIV_2X_gc & ~CLKCTRL_PEN_bm);
  c0:	60 e0       	ldi	r22, 0x00	; 0
  c2:	81 e6       	ldi	r24, 0x61	; 97
  c4:	90 e0       	ldi	r25, 0x00	; 0
  c6:	0e 94 ee 04 	call	0x9dc	; 0x9dc <ccp_write_io>

    /* Wait for the oscillator change to complete. */
    while (CLKCTRL.MCLKSTATUS & CLKCTRL_SOSC_bm) {};
  ca:	80 91 63 00 	lds	r24, 0x0063	; 0x800063 <crc8_table+0x7f7615>
  ce:	80 fd       	sbrc	r24, 0
  d0:	fc cf       	rjmp	.-8      	; 0xca <CLOCK_INHF_clock_init+0x14>
  d2:	08 95       	ret

000000d4 <crc8_cdma2000>:
	0xA7, 0x3C, 0x0A, 0x91, 0x66, 0xFD, 0xCB, 0x50,   0xBE, 0x25, 0x13, 0x88, 0x7F, 0xE4, 0xD2, 0x49,
	0x95, 0x0E, 0x38, 0xA3, 0x54, 0xCF, 0xF9, 0x62,   0x8C, 0x17, 0x21, 0xBA, 0x4D, 0xD6, 0xE0, 0x7B
};


uint8_t crc8_cdma2000(uint64_t data) {
  d4:	2f 92       	push	r2
  d6:	3f 92       	push	r3
  d8:	4f 92       	push	r4
  da:	5f 92       	push	r5
  dc:	6f 92       	push	r6
  de:	7f 92       	push	r7
  e0:	8f 92       	push	r8
  e2:	9f 92       	push	r9
  e4:	af 92       	push	r10
  e6:	bf 92       	push	r11
  e8:	cf 92       	push	r12
  ea:	df 92       	push	r13
  ec:	ef 92       	push	r14
  ee:	ff 92       	push	r15
  f0:	0f 93       	push	r16
  f2:	1f 93       	push	r17
  f4:	cf 93       	push	r28
  f6:	df 93       	push	r29
  f8:	cd b7       	in	r28, 0x3d	; 61
  fa:	de b7       	in	r29, 0x3e	; 62
  fc:	2b 97       	sbiw	r28, 0x0b	; 11
  fe:	cd bf       	out	0x3d, r28	; 61
 100:	de bf       	out	0x3e, r29	; 62
 102:	c2 2e       	mov	r12, r18
 104:	b3 2e       	mov	r11, r19
 106:	a4 2e       	mov	r10, r20
 108:	95 2e       	mov	r9, r21
 10a:	86 2e       	mov	r8, r22
 10c:	77 2e       	mov	r7, r23
 10e:	68 2e       	mov	r6, r24
 110:	59 2e       	mov	r5, r25
	uint8_t crc = 0xFF;
	size_t length = 0;
	uint64_t temp = data;
 112:	f2 2e       	mov	r15, r18
 114:	03 2f       	mov	r16, r19
 116:	14 2f       	mov	r17, r20
 118:	5a 87       	std	Y+10, r21	; 0x0a
 11a:	69 83       	std	Y+1, r22	; 0x01
 11c:	b7 2f       	mov	r27, r23
 11e:	d8 2e       	mov	r13, r24
 120:	e9 2e       	mov	r14, r25
};


uint8_t crc8_cdma2000(uint64_t data) {
	uint8_t crc = 0xFF;
	size_t length = 0;
 122:	e0 e0       	ldi	r30, 0x00	; 0
 124:	f0 e0       	ldi	r31, 0x00	; 0
	uint64_t temp = data;
	while (temp) {
 126:	14 c0       	rjmp	.+40     	; 0x150 <__EEPROM_REGION_LENGTH__+0x50>
		length++;
 128:	31 96       	adiw	r30, 0x01	; 1
		temp >>= 8;
 12a:	2f 2d       	mov	r18, r15
 12c:	30 2f       	mov	r19, r16
 12e:	41 2f       	mov	r20, r17
 130:	5a 85       	ldd	r21, Y+10	; 0x0a
 132:	69 81       	ldd	r22, Y+1	; 0x01
 134:	7b 2f       	mov	r23, r27
 136:	8d 2d       	mov	r24, r13
 138:	9e 2d       	mov	r25, r14
 13a:	08 e0       	ldi	r16, 0x08	; 8
 13c:	0e 94 09 02 	call	0x412	; 0x412 <__lshrdi3>
 140:	f2 2e       	mov	r15, r18
 142:	03 2f       	mov	r16, r19
 144:	14 2f       	mov	r17, r20
 146:	5a 87       	std	Y+10, r21	; 0x0a
 148:	69 83       	std	Y+1, r22	; 0x01
 14a:	b7 2f       	mov	r27, r23
 14c:	d8 2e       	mov	r13, r24
 14e:	e9 2e       	mov	r14, r25

uint8_t crc8_cdma2000(uint64_t data) {
	uint8_t crc = 0xFF;
	size_t length = 0;
	uint64_t temp = data;
	while (temp) {
 150:	2f 2d       	mov	r18, r15
 152:	30 2f       	mov	r19, r16
 154:	41 2f       	mov	r20, r17
 156:	5a 85       	ldd	r21, Y+10	; 0x0a
 158:	69 81       	ldd	r22, Y+1	; 0x01
 15a:	7b 2f       	mov	r23, r27
 15c:	8d 2d       	mov	r24, r13
 15e:	9e 2d       	mov	r25, r14
 160:	a0 e0       	ldi	r26, 0x00	; 0
 162:	0e 94 25 02 	call	0x44a	; 0x44a <__cmpdi2_s8>
 166:	01 f7       	brne	.-64     	; 0x128 <__EEPROM_REGION_LENGTH__+0x28>
 168:	8f ef       	ldi	r24, 0xFF	; 255
 16a:	8a 87       	std	Y+10, r24	; 0x0a
 16c:	cb 86       	std	Y+11, r12	; 0x0b
 16e:	b9 82       	std	Y+1, r11	; 0x01
 170:	4a 2c       	mov	r4, r10
 172:	39 2c       	mov	r3, r9
 174:	28 2c       	mov	r2, r8
 176:	1a c0       	rjmp	.+52     	; 0x1ac <__EEPROM_REGION_LENGTH__+0xac>
		length++;
		temp >>= 8;
	}
	while (length--) {
		crc = crc8_table[crc ^ ((data >> (length * 8)) & 0xFF)];
 178:	8d 01       	movw	r16, r26
 17a:	00 0f       	add	r16, r16
 17c:	11 1f       	adc	r17, r17
 17e:	00 0f       	add	r16, r16
 180:	11 1f       	adc	r17, r17
 182:	00 0f       	add	r16, r16
 184:	11 1f       	adc	r17, r17
 186:	2b 85       	ldd	r18, Y+11	; 0x0b
 188:	39 81       	ldd	r19, Y+1	; 0x01
 18a:	44 2d       	mov	r20, r4
 18c:	53 2d       	mov	r21, r3
 18e:	62 2d       	mov	r22, r2
 190:	77 2d       	mov	r23, r7
 192:	86 2d       	mov	r24, r6
 194:	95 2d       	mov	r25, r5
 196:	0e 94 09 02 	call	0x412	; 0x412 <__lshrdi3>
 19a:	8a 84       	ldd	r8, Y+10	; 0x0a
 19c:	82 26       	eor	r8, r18
 19e:	91 2c       	mov	r9, r1
 1a0:	f4 01       	movw	r30, r8
 1a2:	e2 5b       	subi	r30, 0xB2	; 178
 1a4:	f5 47       	sbci	r31, 0x75	; 117
 1a6:	80 81       	ld	r24, Z
 1a8:	8a 87       	std	Y+10, r24	; 0x0a
	uint64_t temp = data;
	while (temp) {
		length++;
		temp >>= 8;
	}
	while (length--) {
 1aa:	fd 01       	movw	r30, r26
 1ac:	df 01       	movw	r26, r30
 1ae:	11 97       	sbiw	r26, 0x01	; 1
 1b0:	ef 2b       	or	r30, r31
 1b2:	11 f7       	brne	.-60     	; 0x178 <__EEPROM_REGION_LENGTH__+0x78>
 1b4:	8a 85       	ldd	r24, Y+10	; 0x0a
		crc = crc8_table[crc ^ ((data >> (length * 8)) & 0xFF)];
	}
	return crc;
}
 1b6:	2b 96       	adiw	r28, 0x0b	; 11
 1b8:	cd bf       	out	0x3d, r28	; 61
 1ba:	de bf       	out	0x3e, r29	; 62
 1bc:	df 91       	pop	r29
 1be:	cf 91       	pop	r28
 1c0:	1f 91       	pop	r17
 1c2:	0f 91       	pop	r16
 1c4:	ff 90       	pop	r15
 1c6:	ef 90       	pop	r14
 1c8:	df 90       	pop	r13
 1ca:	cf 90       	pop	r12
 1cc:	bf 90       	pop	r11
 1ce:	af 90       	pop	r10
 1d0:	9f 90       	pop	r9
 1d2:	8f 90       	pop	r8
 1d4:	7f 90       	pop	r7
 1d6:	6f 90       	pop	r6
 1d8:	5f 90       	pop	r5
 1da:	4f 90       	pop	r4
 1dc:	3f 90       	pop	r3
 1de:	2f 90       	pop	r2
 1e0:	08 95       	ret

000001e2 <GPIO_init>:
 * - PB2 as TX for dummy data sending with pull-up enabled.
 * - PB3 as RX (MISO, MT6701 DO) with pull-up enabled.
 * - PA7 as SS (MT6701 CSN) output, initially set high.
 */
void GPIO_init(){
    PORTMUX.USARTROUTEA = PORTMUX_USART0_DEFAULT_gc; ///< Set USART0 to default pins
 1e2:	10 92 e2 05 	sts	0x05E2, r1	; 0x8005e2 <crc8_table+0x7f7b94>

    PORTB.DIRSET = PIN2_bm; ///< Set PB2 as TX for dummy data sending
 1e6:	e0 e2       	ldi	r30, 0x20	; 32
 1e8:	f4 e0       	ldi	r31, 0x04	; 4
 1ea:	84 e0       	ldi	r24, 0x04	; 4
 1ec:	81 83       	std	Z+1, r24	; 0x01
    PORTB.PIN2CTRL = PORT_PULLUPEN_bm; ///< Enable pull-up for PB2 (USART0 TX)
 1ee:	88 e0       	ldi	r24, 0x08	; 8
 1f0:	82 8b       	std	Z+18, r24	; 0x12
 1f2:	08 95       	ret

000001f4 <main>:

		uint64_t combined = 0;

int main(void)
{
    CLOCK_INHF_clock_init(); ///< Initialize system clock
 1f4:	0e 94 5b 00 	call	0xb6	; 0xb6 <CLOCK_INHF_clock_init>
    GPIO_init(); ///< Initialize GPIO pins
 1f8:	0e 94 f1 00 	call	0x1e2	; 0x1e2 <GPIO_init>
    USART0_init(); ///< Initialize USART0 for SPI communication
 1fc:	0e 94 a0 01 	call	0x340	; 0x340 <USART0_init>

	combined = ((uint64_t)a << 40) | ((uint64_t)b << 24) | ((uint32_t)c << 12) | ((uint16_t)d << 4) | e;
 200:	80 91 06 38 	lds	r24, 0x3806	; 0x803806 <a>
 204:	90 91 07 38 	lds	r25, 0x3807	; 0x803807 <a+0x1>
 208:	28 2f       	mov	r18, r24
 20a:	39 2f       	mov	r19, r25
 20c:	40 e0       	ldi	r20, 0x00	; 0
 20e:	50 e0       	ldi	r21, 0x00	; 0
 210:	60 e0       	ldi	r22, 0x00	; 0
 212:	70 e0       	ldi	r23, 0x00	; 0
 214:	80 e0       	ldi	r24, 0x00	; 0
 216:	90 e0       	ldi	r25, 0x00	; 0
 218:	08 e2       	ldi	r16, 0x28	; 40
 21a:	0e 94 ee 01 	call	0x3dc	; 0x3dc <__ashldi3>
 21e:	e2 2f       	mov	r30, r18
 220:	d3 2e       	mov	r13, r19
 222:	f4 2e       	mov	r15, r20
 224:	e5 2e       	mov	r14, r21
 226:	16 2f       	mov	r17, r22
 228:	d7 2f       	mov	r29, r23
 22a:	c8 2f       	mov	r28, r24
 22c:	f9 2f       	mov	r31, r25
 22e:	40 91 04 38 	lds	r20, 0x3804	; 0x803804 <b>
 232:	50 91 05 38 	lds	r21, 0x3805	; 0x803805 <b+0x1>
 236:	24 2f       	mov	r18, r20
 238:	35 2f       	mov	r19, r21
 23a:	40 e0       	ldi	r20, 0x00	; 0
 23c:	50 e0       	ldi	r21, 0x00	; 0
 23e:	60 e0       	ldi	r22, 0x00	; 0
 240:	70 e0       	ldi	r23, 0x00	; 0
 242:	80 e0       	ldi	r24, 0x00	; 0
 244:	90 e0       	ldi	r25, 0x00	; 0
 246:	08 e1       	ldi	r16, 0x18	; 24
 248:	0e 94 ee 01 	call	0x3dc	; 0x3dc <__ashldi3>
 24c:	3d 29       	or	r19, r13
 24e:	f4 2a       	or	r15, r20
 250:	0e 2d       	mov	r16, r14
 252:	05 2b       	or	r16, r21
 254:	16 2b       	or	r17, r22
 256:	d7 2b       	or	r29, r23
 258:	c8 2b       	or	r28, r24
 25a:	f9 2b       	or	r31, r25
 25c:	40 91 02 38 	lds	r20, 0x3802	; 0x803802 <c>
 260:	50 91 03 38 	lds	r21, 0x3803	; 0x803803 <c+0x1>
 264:	60 e0       	ldi	r22, 0x00	; 0
 266:	70 e0       	ldi	r23, 0x00	; 0
 268:	03 2e       	mov	r0, r19
 26a:	3c e0       	ldi	r19, 0x0C	; 12
 26c:	44 0f       	add	r20, r20
 26e:	55 1f       	adc	r21, r21
 270:	66 1f       	adc	r22, r22
 272:	77 1f       	adc	r23, r23
 274:	3a 95       	dec	r19
 276:	d1 f7       	brne	.-12     	; 0x26c <main+0x78>
 278:	30 2d       	mov	r19, r0
 27a:	2e 2b       	or	r18, r30
 27c:	35 2b       	or	r19, r21
 27e:	f6 2a       	or	r15, r22
 280:	07 2b       	or	r16, r23
 282:	40 91 01 38 	lds	r20, 0x3801	; 0x803801 <d>
 286:	80 e1       	ldi	r24, 0x10	; 16
 288:	48 9f       	mul	r20, r24
 28a:	a0 01       	movw	r20, r0
 28c:	11 24       	eor	r1, r1
 28e:	24 2b       	or	r18, r20
 290:	85 2f       	mov	r24, r21
 292:	83 2b       	or	r24, r19
 294:	90 91 00 38 	lds	r25, 0x3800	; 0x803800 <__DATA_REGION_ORIGIN__>
 298:	29 2b       	or	r18, r25
 29a:	20 93 08 38 	sts	0x3808, r18	; 0x803808 <__data_end>
 29e:	80 93 09 38 	sts	0x3809, r24	; 0x803809 <__data_end+0x1>
 2a2:	f0 92 0a 38 	sts	0x380A, r15	; 0x80380a <__data_end+0x2>
 2a6:	00 93 0b 38 	sts	0x380B, r16	; 0x80380b <__data_end+0x3>
 2aa:	10 93 0c 38 	sts	0x380C, r17	; 0x80380c <__data_end+0x4>
 2ae:	d0 93 0d 38 	sts	0x380D, r29	; 0x80380d <__data_end+0x5>
 2b2:	c0 93 0e 38 	sts	0x380E, r28	; 0x80380e <__data_end+0x6>
 2b6:	f0 93 0f 38 	sts	0x380F, r31	; 0x80380f <__data_end+0x7>

    while (1) 
    {
		//aaaa- elevacijos kampas, bbbb-azimuto kampas, ccc sp-átampa, dd sp-srovë, e y min + y max (0-neivienas, 1-min arba 2-max)
       // USART0_sendString("<aaaabbbbcccdde>\r\n"); //18 simboliø
		USART0_printf("<%04x%04x%03x%02x%x%02x>\r\n", (uint16_t)a, (uint16_t)b, (uint16_t)c, (uint8_t)d, (uint8_t)e, (uint8_t)crc8_cdma2000(combined)); //imituojam 89.99 elevacijos kampa, 359.99 azimuto kampa,spU 259.1V,spI 10.5A
 2ba:	20 91 08 38 	lds	r18, 0x3808	; 0x803808 <__data_end>
 2be:	30 91 09 38 	lds	r19, 0x3809	; 0x803809 <__data_end+0x1>
 2c2:	40 91 0a 38 	lds	r20, 0x380A	; 0x80380a <__data_end+0x2>
 2c6:	50 91 0b 38 	lds	r21, 0x380B	; 0x80380b <__data_end+0x3>
 2ca:	60 91 0c 38 	lds	r22, 0x380C	; 0x80380c <__data_end+0x4>
 2ce:	70 91 0d 38 	lds	r23, 0x380D	; 0x80380d <__data_end+0x5>
 2d2:	80 91 0e 38 	lds	r24, 0x380E	; 0x80380e <__data_end+0x6>
 2d6:	90 91 0f 38 	lds	r25, 0x380F	; 0x80380f <__data_end+0x7>
 2da:	0e 94 6a 00 	call	0xd4	; 0xd4 <crc8_cdma2000>
 2de:	1f 92       	push	r1
 2e0:	8f 93       	push	r24
 2e2:	80 91 00 38 	lds	r24, 0x3800	; 0x803800 <__DATA_REGION_ORIGIN__>
 2e6:	1f 92       	push	r1
 2e8:	8f 93       	push	r24
 2ea:	80 91 01 38 	lds	r24, 0x3801	; 0x803801 <d>
 2ee:	1f 92       	push	r1
 2f0:	8f 93       	push	r24
 2f2:	80 91 03 38 	lds	r24, 0x3803	; 0x803803 <c+0x1>
 2f6:	8f 93       	push	r24
 2f8:	80 91 02 38 	lds	r24, 0x3802	; 0x803802 <c>
 2fc:	8f 93       	push	r24
 2fe:	80 91 05 38 	lds	r24, 0x3805	; 0x803805 <b+0x1>
 302:	8f 93       	push	r24
 304:	80 91 04 38 	lds	r24, 0x3804	; 0x803804 <b>
 308:	8f 93       	push	r24
 30a:	80 91 07 38 	lds	r24, 0x3807	; 0x803807 <a+0x1>
 30e:	8f 93       	push	r24
 310:	80 91 06 38 	lds	r24, 0x3806	; 0x803806 <a>
 314:	8f 93       	push	r24
 316:	8e e4       	ldi	r24, 0x4E	; 78
 318:	9b e8       	ldi	r25, 0x8B	; 139
 31a:	9f 93       	push	r25
 31c:	8f 93       	push	r24
 31e:	0e 94 d0 01 	call	0x3a0	; 0x3a0 <USART0_printf>
	#else
		//round up by default
		__ticks_dc = (uint32_t)(ceil(fabs(__tmp)));
	#endif

	__builtin_avr_delay_cycles(__ticks_dc);
 322:	9f e7       	ldi	r25, 0x7F	; 127
 324:	2a e1       	ldi	r18, 0x1A	; 26
 326:	86 e0       	ldi	r24, 0x06	; 6
 328:	91 50       	subi	r25, 0x01	; 1
 32a:	20 40       	sbci	r18, 0x00	; 0
 32c:	80 40       	sbci	r24, 0x00	; 0
 32e:	e1 f7       	brne	.-8      	; 0x328 <main+0x134>
 330:	00 c0       	rjmp	.+0      	; 0x332 <main+0x13e>
 332:	00 00       	nop
 334:	8d b7       	in	r24, 0x3d	; 61
 336:	9e b7       	in	r25, 0x3e	; 62
 338:	0e 96       	adiw	r24, 0x0e	; 14
 33a:	8d bf       	out	0x3d, r24	; 61
 33c:	9e bf       	out	0x3e, r25	; 62
 33e:	bd cf       	rjmp	.-134    	; 0x2ba <main+0xc6>

00000340 <USART0_init>:
 *  Author: Saulius
 */ 
#include "Settings.h"

void USART0_init() {
    USART0.BAUD = (uint16_t)USART0_BAUD_RATE(500000); ///< Set baud rate to 0.25 Mbps.
 340:	e0 e0       	ldi	r30, 0x00	; 0
 342:	f8 e0       	ldi	r31, 0x08	; 8
 344:	80 e4       	ldi	r24, 0x40	; 64
 346:	91 e0       	ldi	r25, 0x01	; 1
 348:	80 87       	std	Z+8, r24	; 0x08
 34a:	91 87       	std	Z+9, r25	; 0x09
    USART0.CTRLB = USART_TXEN_bm | USART_RXMODE_CLK2X_gc; ///< Enable transmitter, double-speed mode.
 34c:	82 e4       	ldi	r24, 0x42	; 66
 34e:	86 83       	std	Z+6, r24	; 0x06
    USART0.CTRLC = USART_CMODE_ASYNCHRONOUS_gc | ///< Configure for asynchronous mode.
 350:	83 e0       	ldi	r24, 0x03	; 3
 352:	87 83       	std	Z+7, r24	; 0x07
 354:	08 95       	ret

00000356 <USART0_sendChar>:
 * This function waits for the USART0 data register to be empty and then transmits the specified character.
 * 
 * @param c The character to be transmitted.
 */
void USART0_sendChar(char c) {
    while (!(USART0.STATUS & USART_DREIF_bm)); ///< Wait for data register to be empty.
 356:	90 91 04 08 	lds	r25, 0x0804	; 0x800804 <crc8_table+0x7f7db6>
 35a:	95 ff       	sbrs	r25, 5
 35c:	fc cf       	rjmp	.-8      	; 0x356 <USART0_sendChar>
    USART0.TXDATAL = c; ///< Transmit the character.
 35e:	80 93 02 08 	sts	0x0802, r24	; 0x800802 <crc8_table+0x7f7db4>
 362:	08 95       	ret

00000364 <USART0_sendString>:
 * 
 * This function sends a string of characters one by one using the `USART0_sendChar` function.
 * 
 * @param str The string to be transmitted.
 */
void USART0_sendString(char *str) {
 364:	0f 93       	push	r16
 366:	1f 93       	push	r17
 368:	cf 93       	push	r28
 36a:	df 93       	push	r29
 36c:	8c 01       	movw	r16, r24
    for (size_t i = 0; i < strlen(str); i++) {
 36e:	c0 e0       	ldi	r28, 0x00	; 0
 370:	d0 e0       	ldi	r29, 0x00	; 0
 372:	07 c0       	rjmp	.+14     	; 0x382 <USART0_sendString+0x1e>
        USART0_sendChar(str[i]); ///< Send each character of the string.
 374:	f8 01       	movw	r30, r16
 376:	ec 0f       	add	r30, r28
 378:	fd 1f       	adc	r31, r29
 37a:	80 81       	ld	r24, Z
 37c:	0e 94 ab 01 	call	0x356	; 0x356 <USART0_sendChar>
 * This function sends a string of characters one by one using the `USART0_sendChar` function.
 * 
 * @param str The string to be transmitted.
 */
void USART0_sendString(char *str) {
    for (size_t i = 0; i < strlen(str); i++) {
 380:	21 96       	adiw	r28, 0x01	; 1
 382:	f8 01       	movw	r30, r16
 384:	01 90       	ld	r0, Z+
 386:	00 20       	and	r0, r0
 388:	e9 f7       	brne	.-6      	; 0x384 <USART0_sendString+0x20>
 38a:	31 97       	sbiw	r30, 0x01	; 1
 38c:	e0 1b       	sub	r30, r16
 38e:	f1 0b       	sbc	r31, r17
 390:	ce 17       	cp	r28, r30
 392:	df 07       	cpc	r29, r31
 394:	78 f3       	brcs	.-34     	; 0x374 <USART0_sendString+0x10>
        USART0_sendChar(str[i]); ///< Send each character of the string.
    }
}
 396:	df 91       	pop	r29
 398:	cf 91       	pop	r28
 39a:	1f 91       	pop	r17
 39c:	0f 91       	pop	r16
 39e:	08 95       	ret

000003a0 <USART0_printf>:

void USART0_printf(const char *format, ...) {
 3a0:	cf 93       	push	r28
 3a2:	df 93       	push	r29
 3a4:	cd b7       	in	r28, 0x3d	; 61
 3a6:	de b7       	in	r29, 0x3e	; 62
 3a8:	a6 97       	sbiw	r28, 0x26	; 38
 3aa:	cd bf       	out	0x3d, r28	; 61
 3ac:	de bf       	out	0x3e, r29	; 62
 3ae:	9e 01       	movw	r18, r28
 3b0:	25 5d       	subi	r18, 0xD5	; 213
 3b2:	3f 4f       	sbci	r19, 0xFF	; 255
 3b4:	f9 01       	movw	r30, r18
 3b6:	41 91       	ld	r20, Z+
 3b8:	51 91       	ld	r21, Z+
 3ba:	9f 01       	movw	r18, r30
	char buffer[38]; ///< Temporary buffer to hold the formatted string.
	va_list args;
	va_start(args, format);
	vsnprintf(buffer, sizeof(buffer), format, args); ///< Format the string into the buffer.
 3bc:	66 e2       	ldi	r22, 0x26	; 38
 3be:	70 e0       	ldi	r23, 0x00	; 0
 3c0:	ce 01       	movw	r24, r28
 3c2:	01 96       	adiw	r24, 0x01	; 1
 3c4:	0e 94 31 02 	call	0x462	; 0x462 <vsnprintf>
	va_end(args);
	USART0_sendString(buffer); ///< Send the formatted string via USART0.
 3c8:	ce 01       	movw	r24, r28
 3ca:	01 96       	adiw	r24, 0x01	; 1
 3cc:	0e 94 b2 01 	call	0x364	; 0x364 <USART0_sendString>
 3d0:	a6 96       	adiw	r28, 0x26	; 38
 3d2:	cd bf       	out	0x3d, r28	; 61
 3d4:	de bf       	out	0x3e, r29	; 62
 3d6:	df 91       	pop	r29
 3d8:	cf 91       	pop	r28
 3da:	08 95       	ret

000003dc <__ashldi3>:
 3dc:	0f 93       	push	r16
 3de:	08 30       	cpi	r16, 0x08	; 8
 3e0:	90 f0       	brcs	.+36     	; 0x406 <__LOCK_REGION_LENGTH__+0x6>
 3e2:	98 2f       	mov	r25, r24
 3e4:	87 2f       	mov	r24, r23
 3e6:	76 2f       	mov	r23, r22
 3e8:	65 2f       	mov	r22, r21
 3ea:	54 2f       	mov	r21, r20
 3ec:	43 2f       	mov	r20, r19
 3ee:	32 2f       	mov	r19, r18
 3f0:	22 27       	eor	r18, r18
 3f2:	08 50       	subi	r16, 0x08	; 8
 3f4:	f4 cf       	rjmp	.-24     	; 0x3de <__ashldi3+0x2>
 3f6:	22 0f       	add	r18, r18
 3f8:	33 1f       	adc	r19, r19
 3fa:	44 1f       	adc	r20, r20
 3fc:	55 1f       	adc	r21, r21
 3fe:	66 1f       	adc	r22, r22
 400:	77 1f       	adc	r23, r23
 402:	88 1f       	adc	r24, r24
 404:	99 1f       	adc	r25, r25
 406:	0a 95       	dec	r16
 408:	b2 f7       	brpl	.-20     	; 0x3f6 <__ashldi3+0x1a>
 40a:	0f 91       	pop	r16
 40c:	08 95       	ret

0000040e <__ashrdi3>:
 40e:	97 fb       	bst	r25, 7
 410:	10 f8       	bld	r1, 0

00000412 <__lshrdi3>:
 412:	16 94       	lsr	r1
 414:	00 08       	sbc	r0, r0
 416:	0f 93       	push	r16
 418:	08 30       	cpi	r16, 0x08	; 8
 41a:	98 f0       	brcs	.+38     	; 0x442 <__lshrdi3+0x30>
 41c:	08 50       	subi	r16, 0x08	; 8
 41e:	23 2f       	mov	r18, r19
 420:	34 2f       	mov	r19, r20
 422:	45 2f       	mov	r20, r21
 424:	56 2f       	mov	r21, r22
 426:	67 2f       	mov	r22, r23
 428:	78 2f       	mov	r23, r24
 42a:	89 2f       	mov	r24, r25
 42c:	90 2d       	mov	r25, r0
 42e:	f4 cf       	rjmp	.-24     	; 0x418 <__lshrdi3+0x6>
 430:	05 94       	asr	r0
 432:	97 95       	ror	r25
 434:	87 95       	ror	r24
 436:	77 95       	ror	r23
 438:	67 95       	ror	r22
 43a:	57 95       	ror	r21
 43c:	47 95       	ror	r20
 43e:	37 95       	ror	r19
 440:	27 95       	ror	r18
 442:	0a 95       	dec	r16
 444:	aa f7       	brpl	.-22     	; 0x430 <__lshrdi3+0x1e>
 446:	0f 91       	pop	r16
 448:	08 95       	ret

0000044a <__cmpdi2_s8>:
 44a:	00 24       	eor	r0, r0
 44c:	a7 fd       	sbrc	r26, 7
 44e:	00 94       	com	r0
 450:	2a 17       	cp	r18, r26
 452:	30 05       	cpc	r19, r0
 454:	40 05       	cpc	r20, r0
 456:	50 05       	cpc	r21, r0
 458:	60 05       	cpc	r22, r0
 45a:	70 05       	cpc	r23, r0
 45c:	80 05       	cpc	r24, r0
 45e:	90 05       	cpc	r25, r0
 460:	08 95       	ret

00000462 <vsnprintf>:
 462:	ae e0       	ldi	r26, 0x0E	; 14
 464:	b0 e0       	ldi	r27, 0x00	; 0
 466:	e7 e3       	ldi	r30, 0x37	; 55
 468:	f2 e0       	ldi	r31, 0x02	; 2
 46a:	0c 94 02 05 	jmp	0xa04	; 0xa04 <__prologue_saves__+0x1c>
 46e:	8c 01       	movw	r16, r24
 470:	fa 01       	movw	r30, r20
 472:	86 e0       	ldi	r24, 0x06	; 6
 474:	8c 83       	std	Y+4, r24	; 0x04
 476:	09 83       	std	Y+1, r16	; 0x01
 478:	1a 83       	std	Y+2, r17	; 0x02
 47a:	77 ff       	sbrs	r23, 7
 47c:	02 c0       	rjmp	.+4      	; 0x482 <vsnprintf+0x20>
 47e:	60 e0       	ldi	r22, 0x00	; 0
 480:	70 e8       	ldi	r23, 0x80	; 128
 482:	cb 01       	movw	r24, r22
 484:	01 97       	sbiw	r24, 0x01	; 1
 486:	8d 83       	std	Y+5, r24	; 0x05
 488:	9e 83       	std	Y+6, r25	; 0x06
 48a:	a9 01       	movw	r20, r18
 48c:	bf 01       	movw	r22, r30
 48e:	ce 01       	movw	r24, r28
 490:	01 96       	adiw	r24, 0x01	; 1
 492:	0e 94 5d 02 	call	0x4ba	; 0x4ba <vfprintf>
 496:	4d 81       	ldd	r20, Y+5	; 0x05
 498:	5e 81       	ldd	r21, Y+6	; 0x06
 49a:	57 fd       	sbrc	r21, 7
 49c:	0a c0       	rjmp	.+20     	; 0x4b2 <vsnprintf+0x50>
 49e:	2f 81       	ldd	r18, Y+7	; 0x07
 4a0:	38 85       	ldd	r19, Y+8	; 0x08
 4a2:	42 17       	cp	r20, r18
 4a4:	53 07       	cpc	r21, r19
 4a6:	0c f4       	brge	.+2      	; 0x4aa <vsnprintf+0x48>
 4a8:	9a 01       	movw	r18, r20
 4aa:	f8 01       	movw	r30, r16
 4ac:	e2 0f       	add	r30, r18
 4ae:	f3 1f       	adc	r31, r19
 4b0:	10 82       	st	Z, r1
 4b2:	2e 96       	adiw	r28, 0x0e	; 14
 4b4:	e4 e0       	ldi	r30, 0x04	; 4
 4b6:	0c 94 1b 05 	jmp	0xa36	; 0xa36 <__epilogue_restores__+0x1c>

000004ba <vfprintf>:
 4ba:	ab e0       	ldi	r26, 0x0B	; 11
 4bc:	b0 e0       	ldi	r27, 0x00	; 0
 4be:	e3 e6       	ldi	r30, 0x63	; 99
 4c0:	f2 e0       	ldi	r31, 0x02	; 2
 4c2:	0c 94 f4 04 	jmp	0x9e8	; 0x9e8 <__prologue_saves__>
 4c6:	6c 01       	movw	r12, r24
 4c8:	7b 01       	movw	r14, r22
 4ca:	8a 01       	movw	r16, r20
 4cc:	fc 01       	movw	r30, r24
 4ce:	16 82       	std	Z+6, r1	; 0x06
 4d0:	17 82       	std	Z+7, r1	; 0x07
 4d2:	83 81       	ldd	r24, Z+3	; 0x03
 4d4:	81 ff       	sbrs	r24, 1
 4d6:	cc c1       	rjmp	.+920    	; 0x870 <__DATA_REGION_LENGTH__+0x70>
 4d8:	ce 01       	movw	r24, r28
 4da:	01 96       	adiw	r24, 0x01	; 1
 4dc:	3c 01       	movw	r6, r24
 4de:	f6 01       	movw	r30, r12
 4e0:	93 81       	ldd	r25, Z+3	; 0x03
 4e2:	f7 01       	movw	r30, r14
 4e4:	93 fd       	sbrc	r25, 3
 4e6:	85 91       	lpm	r24, Z+
 4e8:	93 ff       	sbrs	r25, 3
 4ea:	81 91       	ld	r24, Z+
 4ec:	7f 01       	movw	r14, r30
 4ee:	88 23       	and	r24, r24
 4f0:	09 f4       	brne	.+2      	; 0x4f4 <vfprintf+0x3a>
 4f2:	ba c1       	rjmp	.+884    	; 0x868 <__DATA_REGION_LENGTH__+0x68>
 4f4:	85 32       	cpi	r24, 0x25	; 37
 4f6:	39 f4       	brne	.+14     	; 0x506 <vfprintf+0x4c>
 4f8:	93 fd       	sbrc	r25, 3
 4fa:	85 91       	lpm	r24, Z+
 4fc:	93 ff       	sbrs	r25, 3
 4fe:	81 91       	ld	r24, Z+
 500:	7f 01       	movw	r14, r30
 502:	85 32       	cpi	r24, 0x25	; 37
 504:	29 f4       	brne	.+10     	; 0x510 <vfprintf+0x56>
 506:	b6 01       	movw	r22, r12
 508:	90 e0       	ldi	r25, 0x00	; 0
 50a:	0e 94 54 04 	call	0x8a8	; 0x8a8 <fputc>
 50e:	e7 cf       	rjmp	.-50     	; 0x4de <vfprintf+0x24>
 510:	91 2c       	mov	r9, r1
 512:	21 2c       	mov	r2, r1
 514:	31 2c       	mov	r3, r1
 516:	ff e1       	ldi	r31, 0x1F	; 31
 518:	f3 15       	cp	r31, r3
 51a:	d8 f0       	brcs	.+54     	; 0x552 <vfprintf+0x98>
 51c:	8b 32       	cpi	r24, 0x2B	; 43
 51e:	79 f0       	breq	.+30     	; 0x53e <vfprintf+0x84>
 520:	38 f4       	brcc	.+14     	; 0x530 <vfprintf+0x76>
 522:	80 32       	cpi	r24, 0x20	; 32
 524:	79 f0       	breq	.+30     	; 0x544 <vfprintf+0x8a>
 526:	83 32       	cpi	r24, 0x23	; 35
 528:	a1 f4       	brne	.+40     	; 0x552 <vfprintf+0x98>
 52a:	23 2d       	mov	r18, r3
 52c:	20 61       	ori	r18, 0x10	; 16
 52e:	1d c0       	rjmp	.+58     	; 0x56a <vfprintf+0xb0>
 530:	8d 32       	cpi	r24, 0x2D	; 45
 532:	61 f0       	breq	.+24     	; 0x54c <vfprintf+0x92>
 534:	80 33       	cpi	r24, 0x30	; 48
 536:	69 f4       	brne	.+26     	; 0x552 <vfprintf+0x98>
 538:	23 2d       	mov	r18, r3
 53a:	21 60       	ori	r18, 0x01	; 1
 53c:	16 c0       	rjmp	.+44     	; 0x56a <vfprintf+0xb0>
 53e:	83 2d       	mov	r24, r3
 540:	82 60       	ori	r24, 0x02	; 2
 542:	38 2e       	mov	r3, r24
 544:	e3 2d       	mov	r30, r3
 546:	e4 60       	ori	r30, 0x04	; 4
 548:	3e 2e       	mov	r3, r30
 54a:	2a c0       	rjmp	.+84     	; 0x5a0 <vfprintf+0xe6>
 54c:	f3 2d       	mov	r31, r3
 54e:	f8 60       	ori	r31, 0x08	; 8
 550:	1d c0       	rjmp	.+58     	; 0x58c <vfprintf+0xd2>
 552:	37 fc       	sbrc	r3, 7
 554:	2d c0       	rjmp	.+90     	; 0x5b0 <vfprintf+0xf6>
 556:	20 ed       	ldi	r18, 0xD0	; 208
 558:	28 0f       	add	r18, r24
 55a:	2a 30       	cpi	r18, 0x0A	; 10
 55c:	40 f0       	brcs	.+16     	; 0x56e <vfprintf+0xb4>
 55e:	8e 32       	cpi	r24, 0x2E	; 46
 560:	b9 f4       	brne	.+46     	; 0x590 <vfprintf+0xd6>
 562:	36 fc       	sbrc	r3, 6
 564:	81 c1       	rjmp	.+770    	; 0x868 <__DATA_REGION_LENGTH__+0x68>
 566:	23 2d       	mov	r18, r3
 568:	20 64       	ori	r18, 0x40	; 64
 56a:	32 2e       	mov	r3, r18
 56c:	19 c0       	rjmp	.+50     	; 0x5a0 <vfprintf+0xe6>
 56e:	36 fe       	sbrs	r3, 6
 570:	06 c0       	rjmp	.+12     	; 0x57e <vfprintf+0xc4>
 572:	8a e0       	ldi	r24, 0x0A	; 10
 574:	98 9e       	mul	r9, r24
 576:	20 0d       	add	r18, r0
 578:	11 24       	eor	r1, r1
 57a:	92 2e       	mov	r9, r18
 57c:	11 c0       	rjmp	.+34     	; 0x5a0 <vfprintf+0xe6>
 57e:	ea e0       	ldi	r30, 0x0A	; 10
 580:	2e 9e       	mul	r2, r30
 582:	20 0d       	add	r18, r0
 584:	11 24       	eor	r1, r1
 586:	22 2e       	mov	r2, r18
 588:	f3 2d       	mov	r31, r3
 58a:	f0 62       	ori	r31, 0x20	; 32
 58c:	3f 2e       	mov	r3, r31
 58e:	08 c0       	rjmp	.+16     	; 0x5a0 <vfprintf+0xe6>
 590:	8c 36       	cpi	r24, 0x6C	; 108
 592:	21 f4       	brne	.+8      	; 0x59c <vfprintf+0xe2>
 594:	83 2d       	mov	r24, r3
 596:	80 68       	ori	r24, 0x80	; 128
 598:	38 2e       	mov	r3, r24
 59a:	02 c0       	rjmp	.+4      	; 0x5a0 <vfprintf+0xe6>
 59c:	88 36       	cpi	r24, 0x68	; 104
 59e:	41 f4       	brne	.+16     	; 0x5b0 <vfprintf+0xf6>
 5a0:	f7 01       	movw	r30, r14
 5a2:	93 fd       	sbrc	r25, 3
 5a4:	85 91       	lpm	r24, Z+
 5a6:	93 ff       	sbrs	r25, 3
 5a8:	81 91       	ld	r24, Z+
 5aa:	7f 01       	movw	r14, r30
 5ac:	81 11       	cpse	r24, r1
 5ae:	b3 cf       	rjmp	.-154    	; 0x516 <vfprintf+0x5c>
 5b0:	98 2f       	mov	r25, r24
 5b2:	9f 7d       	andi	r25, 0xDF	; 223
 5b4:	95 54       	subi	r25, 0x45	; 69
 5b6:	93 30       	cpi	r25, 0x03	; 3
 5b8:	28 f4       	brcc	.+10     	; 0x5c4 <vfprintf+0x10a>
 5ba:	0c 5f       	subi	r16, 0xFC	; 252
 5bc:	1f 4f       	sbci	r17, 0xFF	; 255
 5be:	9f e3       	ldi	r25, 0x3F	; 63
 5c0:	99 83       	std	Y+1, r25	; 0x01
 5c2:	0d c0       	rjmp	.+26     	; 0x5de <vfprintf+0x124>
 5c4:	83 36       	cpi	r24, 0x63	; 99
 5c6:	31 f0       	breq	.+12     	; 0x5d4 <vfprintf+0x11a>
 5c8:	83 37       	cpi	r24, 0x73	; 115
 5ca:	71 f0       	breq	.+28     	; 0x5e8 <vfprintf+0x12e>
 5cc:	83 35       	cpi	r24, 0x53	; 83
 5ce:	09 f0       	breq	.+2      	; 0x5d2 <vfprintf+0x118>
 5d0:	59 c0       	rjmp	.+178    	; 0x684 <vfprintf+0x1ca>
 5d2:	21 c0       	rjmp	.+66     	; 0x616 <vfprintf+0x15c>
 5d4:	f8 01       	movw	r30, r16
 5d6:	80 81       	ld	r24, Z
 5d8:	89 83       	std	Y+1, r24	; 0x01
 5da:	0e 5f       	subi	r16, 0xFE	; 254
 5dc:	1f 4f       	sbci	r17, 0xFF	; 255
 5de:	88 24       	eor	r8, r8
 5e0:	83 94       	inc	r8
 5e2:	91 2c       	mov	r9, r1
 5e4:	53 01       	movw	r10, r6
 5e6:	13 c0       	rjmp	.+38     	; 0x60e <vfprintf+0x154>
 5e8:	28 01       	movw	r4, r16
 5ea:	f2 e0       	ldi	r31, 0x02	; 2
 5ec:	4f 0e       	add	r4, r31
 5ee:	51 1c       	adc	r5, r1
 5f0:	f8 01       	movw	r30, r16
 5f2:	a0 80       	ld	r10, Z
 5f4:	b1 80       	ldd	r11, Z+1	; 0x01
 5f6:	36 fe       	sbrs	r3, 6
 5f8:	03 c0       	rjmp	.+6      	; 0x600 <vfprintf+0x146>
 5fa:	69 2d       	mov	r22, r9
 5fc:	70 e0       	ldi	r23, 0x00	; 0
 5fe:	02 c0       	rjmp	.+4      	; 0x604 <vfprintf+0x14a>
 600:	6f ef       	ldi	r22, 0xFF	; 255
 602:	7f ef       	ldi	r23, 0xFF	; 255
 604:	c5 01       	movw	r24, r10
 606:	0e 94 49 04 	call	0x892	; 0x892 <strnlen>
 60a:	4c 01       	movw	r8, r24
 60c:	82 01       	movw	r16, r4
 60e:	f3 2d       	mov	r31, r3
 610:	ff 77       	andi	r31, 0x7F	; 127
 612:	3f 2e       	mov	r3, r31
 614:	16 c0       	rjmp	.+44     	; 0x642 <vfprintf+0x188>
 616:	28 01       	movw	r4, r16
 618:	22 e0       	ldi	r18, 0x02	; 2
 61a:	42 0e       	add	r4, r18
 61c:	51 1c       	adc	r5, r1
 61e:	f8 01       	movw	r30, r16
 620:	a0 80       	ld	r10, Z
 622:	b1 80       	ldd	r11, Z+1	; 0x01
 624:	36 fe       	sbrs	r3, 6
 626:	03 c0       	rjmp	.+6      	; 0x62e <vfprintf+0x174>
 628:	69 2d       	mov	r22, r9
 62a:	70 e0       	ldi	r23, 0x00	; 0
 62c:	02 c0       	rjmp	.+4      	; 0x632 <vfprintf+0x178>
 62e:	6f ef       	ldi	r22, 0xFF	; 255
 630:	7f ef       	ldi	r23, 0xFF	; 255
 632:	c5 01       	movw	r24, r10
 634:	0e 94 3e 04 	call	0x87c	; 0x87c <strnlen_P>
 638:	4c 01       	movw	r8, r24
 63a:	f3 2d       	mov	r31, r3
 63c:	f0 68       	ori	r31, 0x80	; 128
 63e:	3f 2e       	mov	r3, r31
 640:	82 01       	movw	r16, r4
 642:	33 fc       	sbrc	r3, 3
 644:	1b c0       	rjmp	.+54     	; 0x67c <vfprintf+0x1c2>
 646:	82 2d       	mov	r24, r2
 648:	90 e0       	ldi	r25, 0x00	; 0
 64a:	88 16       	cp	r8, r24
 64c:	99 06       	cpc	r9, r25
 64e:	b0 f4       	brcc	.+44     	; 0x67c <vfprintf+0x1c2>
 650:	b6 01       	movw	r22, r12
 652:	80 e2       	ldi	r24, 0x20	; 32
 654:	90 e0       	ldi	r25, 0x00	; 0
 656:	0e 94 54 04 	call	0x8a8	; 0x8a8 <fputc>
 65a:	2a 94       	dec	r2
 65c:	f4 cf       	rjmp	.-24     	; 0x646 <vfprintf+0x18c>
 65e:	f5 01       	movw	r30, r10
 660:	37 fc       	sbrc	r3, 7
 662:	85 91       	lpm	r24, Z+
 664:	37 fe       	sbrs	r3, 7
 666:	81 91       	ld	r24, Z+
 668:	5f 01       	movw	r10, r30
 66a:	b6 01       	movw	r22, r12
 66c:	90 e0       	ldi	r25, 0x00	; 0
 66e:	0e 94 54 04 	call	0x8a8	; 0x8a8 <fputc>
 672:	21 10       	cpse	r2, r1
 674:	2a 94       	dec	r2
 676:	21 e0       	ldi	r18, 0x01	; 1
 678:	82 1a       	sub	r8, r18
 67a:	91 08       	sbc	r9, r1
 67c:	81 14       	cp	r8, r1
 67e:	91 04       	cpc	r9, r1
 680:	71 f7       	brne	.-36     	; 0x65e <vfprintf+0x1a4>
 682:	e8 c0       	rjmp	.+464    	; 0x854 <__DATA_REGION_LENGTH__+0x54>
 684:	84 36       	cpi	r24, 0x64	; 100
 686:	11 f0       	breq	.+4      	; 0x68c <vfprintf+0x1d2>
 688:	89 36       	cpi	r24, 0x69	; 105
 68a:	41 f5       	brne	.+80     	; 0x6dc <vfprintf+0x222>
 68c:	f8 01       	movw	r30, r16
 68e:	37 fe       	sbrs	r3, 7
 690:	07 c0       	rjmp	.+14     	; 0x6a0 <vfprintf+0x1e6>
 692:	60 81       	ld	r22, Z
 694:	71 81       	ldd	r23, Z+1	; 0x01
 696:	82 81       	ldd	r24, Z+2	; 0x02
 698:	93 81       	ldd	r25, Z+3	; 0x03
 69a:	0c 5f       	subi	r16, 0xFC	; 252
 69c:	1f 4f       	sbci	r17, 0xFF	; 255
 69e:	08 c0       	rjmp	.+16     	; 0x6b0 <vfprintf+0x1f6>
 6a0:	60 81       	ld	r22, Z
 6a2:	71 81       	ldd	r23, Z+1	; 0x01
 6a4:	07 2e       	mov	r0, r23
 6a6:	00 0c       	add	r0, r0
 6a8:	88 0b       	sbc	r24, r24
 6aa:	99 0b       	sbc	r25, r25
 6ac:	0e 5f       	subi	r16, 0xFE	; 254
 6ae:	1f 4f       	sbci	r17, 0xFF	; 255
 6b0:	f3 2d       	mov	r31, r3
 6b2:	ff 76       	andi	r31, 0x6F	; 111
 6b4:	3f 2e       	mov	r3, r31
 6b6:	97 ff       	sbrs	r25, 7
 6b8:	09 c0       	rjmp	.+18     	; 0x6cc <vfprintf+0x212>
 6ba:	90 95       	com	r25
 6bc:	80 95       	com	r24
 6be:	70 95       	com	r23
 6c0:	61 95       	neg	r22
 6c2:	7f 4f       	sbci	r23, 0xFF	; 255
 6c4:	8f 4f       	sbci	r24, 0xFF	; 255
 6c6:	9f 4f       	sbci	r25, 0xFF	; 255
 6c8:	f0 68       	ori	r31, 0x80	; 128
 6ca:	3f 2e       	mov	r3, r31
 6cc:	2a e0       	ldi	r18, 0x0A	; 10
 6ce:	30 e0       	ldi	r19, 0x00	; 0
 6d0:	a3 01       	movw	r20, r6
 6d2:	0e 94 90 04 	call	0x920	; 0x920 <__ultoa_invert>
 6d6:	88 2e       	mov	r8, r24
 6d8:	86 18       	sub	r8, r6
 6da:	45 c0       	rjmp	.+138    	; 0x766 <vfprintf+0x2ac>
 6dc:	85 37       	cpi	r24, 0x75	; 117
 6de:	31 f4       	brne	.+12     	; 0x6ec <vfprintf+0x232>
 6e0:	23 2d       	mov	r18, r3
 6e2:	2f 7e       	andi	r18, 0xEF	; 239
 6e4:	b2 2e       	mov	r11, r18
 6e6:	2a e0       	ldi	r18, 0x0A	; 10
 6e8:	30 e0       	ldi	r19, 0x00	; 0
 6ea:	25 c0       	rjmp	.+74     	; 0x736 <vfprintf+0x27c>
 6ec:	93 2d       	mov	r25, r3
 6ee:	99 7f       	andi	r25, 0xF9	; 249
 6f0:	b9 2e       	mov	r11, r25
 6f2:	8f 36       	cpi	r24, 0x6F	; 111
 6f4:	c1 f0       	breq	.+48     	; 0x726 <vfprintf+0x26c>
 6f6:	18 f4       	brcc	.+6      	; 0x6fe <vfprintf+0x244>
 6f8:	88 35       	cpi	r24, 0x58	; 88
 6fa:	79 f0       	breq	.+30     	; 0x71a <vfprintf+0x260>
 6fc:	b5 c0       	rjmp	.+362    	; 0x868 <__DATA_REGION_LENGTH__+0x68>
 6fe:	80 37       	cpi	r24, 0x70	; 112
 700:	19 f0       	breq	.+6      	; 0x708 <vfprintf+0x24e>
 702:	88 37       	cpi	r24, 0x78	; 120
 704:	21 f0       	breq	.+8      	; 0x70e <vfprintf+0x254>
 706:	b0 c0       	rjmp	.+352    	; 0x868 <__DATA_REGION_LENGTH__+0x68>
 708:	e9 2f       	mov	r30, r25
 70a:	e0 61       	ori	r30, 0x10	; 16
 70c:	be 2e       	mov	r11, r30
 70e:	b4 fe       	sbrs	r11, 4
 710:	0d c0       	rjmp	.+26     	; 0x72c <vfprintf+0x272>
 712:	fb 2d       	mov	r31, r11
 714:	f4 60       	ori	r31, 0x04	; 4
 716:	bf 2e       	mov	r11, r31
 718:	09 c0       	rjmp	.+18     	; 0x72c <vfprintf+0x272>
 71a:	34 fe       	sbrs	r3, 4
 71c:	0a c0       	rjmp	.+20     	; 0x732 <vfprintf+0x278>
 71e:	29 2f       	mov	r18, r25
 720:	26 60       	ori	r18, 0x06	; 6
 722:	b2 2e       	mov	r11, r18
 724:	06 c0       	rjmp	.+12     	; 0x732 <vfprintf+0x278>
 726:	28 e0       	ldi	r18, 0x08	; 8
 728:	30 e0       	ldi	r19, 0x00	; 0
 72a:	05 c0       	rjmp	.+10     	; 0x736 <vfprintf+0x27c>
 72c:	20 e1       	ldi	r18, 0x10	; 16
 72e:	30 e0       	ldi	r19, 0x00	; 0
 730:	02 c0       	rjmp	.+4      	; 0x736 <vfprintf+0x27c>
 732:	20 e1       	ldi	r18, 0x10	; 16
 734:	32 e0       	ldi	r19, 0x02	; 2
 736:	f8 01       	movw	r30, r16
 738:	b7 fe       	sbrs	r11, 7
 73a:	07 c0       	rjmp	.+14     	; 0x74a <vfprintf+0x290>
 73c:	60 81       	ld	r22, Z
 73e:	71 81       	ldd	r23, Z+1	; 0x01
 740:	82 81       	ldd	r24, Z+2	; 0x02
 742:	93 81       	ldd	r25, Z+3	; 0x03
 744:	0c 5f       	subi	r16, 0xFC	; 252
 746:	1f 4f       	sbci	r17, 0xFF	; 255
 748:	06 c0       	rjmp	.+12     	; 0x756 <vfprintf+0x29c>
 74a:	60 81       	ld	r22, Z
 74c:	71 81       	ldd	r23, Z+1	; 0x01
 74e:	80 e0       	ldi	r24, 0x00	; 0
 750:	90 e0       	ldi	r25, 0x00	; 0
 752:	0e 5f       	subi	r16, 0xFE	; 254
 754:	1f 4f       	sbci	r17, 0xFF	; 255
 756:	a3 01       	movw	r20, r6
 758:	0e 94 90 04 	call	0x920	; 0x920 <__ultoa_invert>
 75c:	88 2e       	mov	r8, r24
 75e:	86 18       	sub	r8, r6
 760:	fb 2d       	mov	r31, r11
 762:	ff 77       	andi	r31, 0x7F	; 127
 764:	3f 2e       	mov	r3, r31
 766:	36 fe       	sbrs	r3, 6
 768:	0d c0       	rjmp	.+26     	; 0x784 <vfprintf+0x2ca>
 76a:	23 2d       	mov	r18, r3
 76c:	2e 7f       	andi	r18, 0xFE	; 254
 76e:	a2 2e       	mov	r10, r18
 770:	89 14       	cp	r8, r9
 772:	58 f4       	brcc	.+22     	; 0x78a <vfprintf+0x2d0>
 774:	34 fe       	sbrs	r3, 4
 776:	0b c0       	rjmp	.+22     	; 0x78e <vfprintf+0x2d4>
 778:	32 fc       	sbrc	r3, 2
 77a:	09 c0       	rjmp	.+18     	; 0x78e <vfprintf+0x2d4>
 77c:	83 2d       	mov	r24, r3
 77e:	8e 7e       	andi	r24, 0xEE	; 238
 780:	a8 2e       	mov	r10, r24
 782:	05 c0       	rjmp	.+10     	; 0x78e <vfprintf+0x2d4>
 784:	b8 2c       	mov	r11, r8
 786:	a3 2c       	mov	r10, r3
 788:	03 c0       	rjmp	.+6      	; 0x790 <vfprintf+0x2d6>
 78a:	b8 2c       	mov	r11, r8
 78c:	01 c0       	rjmp	.+2      	; 0x790 <vfprintf+0x2d6>
 78e:	b9 2c       	mov	r11, r9
 790:	a4 fe       	sbrs	r10, 4
 792:	0f c0       	rjmp	.+30     	; 0x7b2 <vfprintf+0x2f8>
 794:	fe 01       	movw	r30, r28
 796:	e8 0d       	add	r30, r8
 798:	f1 1d       	adc	r31, r1
 79a:	80 81       	ld	r24, Z
 79c:	80 33       	cpi	r24, 0x30	; 48
 79e:	21 f4       	brne	.+8      	; 0x7a8 <vfprintf+0x2ee>
 7a0:	9a 2d       	mov	r25, r10
 7a2:	99 7e       	andi	r25, 0xE9	; 233
 7a4:	a9 2e       	mov	r10, r25
 7a6:	09 c0       	rjmp	.+18     	; 0x7ba <vfprintf+0x300>
 7a8:	a2 fe       	sbrs	r10, 2
 7aa:	06 c0       	rjmp	.+12     	; 0x7b8 <vfprintf+0x2fe>
 7ac:	b3 94       	inc	r11
 7ae:	b3 94       	inc	r11
 7b0:	04 c0       	rjmp	.+8      	; 0x7ba <vfprintf+0x300>
 7b2:	8a 2d       	mov	r24, r10
 7b4:	86 78       	andi	r24, 0x86	; 134
 7b6:	09 f0       	breq	.+2      	; 0x7ba <vfprintf+0x300>
 7b8:	b3 94       	inc	r11
 7ba:	a3 fc       	sbrc	r10, 3
 7bc:	11 c0       	rjmp	.+34     	; 0x7e0 <vfprintf+0x326>
 7be:	a0 fe       	sbrs	r10, 0
 7c0:	06 c0       	rjmp	.+12     	; 0x7ce <vfprintf+0x314>
 7c2:	b2 14       	cp	r11, r2
 7c4:	88 f4       	brcc	.+34     	; 0x7e8 <vfprintf+0x32e>
 7c6:	28 0c       	add	r2, r8
 7c8:	92 2c       	mov	r9, r2
 7ca:	9b 18       	sub	r9, r11
 7cc:	0e c0       	rjmp	.+28     	; 0x7ea <vfprintf+0x330>
 7ce:	b2 14       	cp	r11, r2
 7d0:	60 f4       	brcc	.+24     	; 0x7ea <vfprintf+0x330>
 7d2:	b6 01       	movw	r22, r12
 7d4:	80 e2       	ldi	r24, 0x20	; 32
 7d6:	90 e0       	ldi	r25, 0x00	; 0
 7d8:	0e 94 54 04 	call	0x8a8	; 0x8a8 <fputc>
 7dc:	b3 94       	inc	r11
 7de:	f7 cf       	rjmp	.-18     	; 0x7ce <vfprintf+0x314>
 7e0:	b2 14       	cp	r11, r2
 7e2:	18 f4       	brcc	.+6      	; 0x7ea <vfprintf+0x330>
 7e4:	2b 18       	sub	r2, r11
 7e6:	02 c0       	rjmp	.+4      	; 0x7ec <vfprintf+0x332>
 7e8:	98 2c       	mov	r9, r8
 7ea:	21 2c       	mov	r2, r1
 7ec:	a4 fe       	sbrs	r10, 4
 7ee:	10 c0       	rjmp	.+32     	; 0x810 <__DATA_REGION_LENGTH__+0x10>
 7f0:	b6 01       	movw	r22, r12
 7f2:	80 e3       	ldi	r24, 0x30	; 48
 7f4:	90 e0       	ldi	r25, 0x00	; 0
 7f6:	0e 94 54 04 	call	0x8a8	; 0x8a8 <fputc>
 7fa:	a2 fe       	sbrs	r10, 2
 7fc:	17 c0       	rjmp	.+46     	; 0x82c <__DATA_REGION_LENGTH__+0x2c>
 7fe:	a1 fc       	sbrc	r10, 1
 800:	03 c0       	rjmp	.+6      	; 0x808 <__DATA_REGION_LENGTH__+0x8>
 802:	88 e7       	ldi	r24, 0x78	; 120
 804:	90 e0       	ldi	r25, 0x00	; 0
 806:	02 c0       	rjmp	.+4      	; 0x80c <__DATA_REGION_LENGTH__+0xc>
 808:	88 e5       	ldi	r24, 0x58	; 88
 80a:	90 e0       	ldi	r25, 0x00	; 0
 80c:	b6 01       	movw	r22, r12
 80e:	0c c0       	rjmp	.+24     	; 0x828 <__DATA_REGION_LENGTH__+0x28>
 810:	8a 2d       	mov	r24, r10
 812:	86 78       	andi	r24, 0x86	; 134
 814:	59 f0       	breq	.+22     	; 0x82c <__DATA_REGION_LENGTH__+0x2c>
 816:	a1 fe       	sbrs	r10, 1
 818:	02 c0       	rjmp	.+4      	; 0x81e <__DATA_REGION_LENGTH__+0x1e>
 81a:	8b e2       	ldi	r24, 0x2B	; 43
 81c:	01 c0       	rjmp	.+2      	; 0x820 <__DATA_REGION_LENGTH__+0x20>
 81e:	80 e2       	ldi	r24, 0x20	; 32
 820:	a7 fc       	sbrc	r10, 7
 822:	8d e2       	ldi	r24, 0x2D	; 45
 824:	b6 01       	movw	r22, r12
 826:	90 e0       	ldi	r25, 0x00	; 0
 828:	0e 94 54 04 	call	0x8a8	; 0x8a8 <fputc>
 82c:	89 14       	cp	r8, r9
 82e:	38 f4       	brcc	.+14     	; 0x83e <__DATA_REGION_LENGTH__+0x3e>
 830:	b6 01       	movw	r22, r12
 832:	80 e3       	ldi	r24, 0x30	; 48
 834:	90 e0       	ldi	r25, 0x00	; 0
 836:	0e 94 54 04 	call	0x8a8	; 0x8a8 <fputc>
 83a:	9a 94       	dec	r9
 83c:	f7 cf       	rjmp	.-18     	; 0x82c <__DATA_REGION_LENGTH__+0x2c>
 83e:	8a 94       	dec	r8
 840:	f3 01       	movw	r30, r6
 842:	e8 0d       	add	r30, r8
 844:	f1 1d       	adc	r31, r1
 846:	80 81       	ld	r24, Z
 848:	b6 01       	movw	r22, r12
 84a:	90 e0       	ldi	r25, 0x00	; 0
 84c:	0e 94 54 04 	call	0x8a8	; 0x8a8 <fputc>
 850:	81 10       	cpse	r8, r1
 852:	f5 cf       	rjmp	.-22     	; 0x83e <__DATA_REGION_LENGTH__+0x3e>
 854:	22 20       	and	r2, r2
 856:	09 f4       	brne	.+2      	; 0x85a <__DATA_REGION_LENGTH__+0x5a>
 858:	42 ce       	rjmp	.-892    	; 0x4de <vfprintf+0x24>
 85a:	b6 01       	movw	r22, r12
 85c:	80 e2       	ldi	r24, 0x20	; 32
 85e:	90 e0       	ldi	r25, 0x00	; 0
 860:	0e 94 54 04 	call	0x8a8	; 0x8a8 <fputc>
 864:	2a 94       	dec	r2
 866:	f6 cf       	rjmp	.-20     	; 0x854 <__DATA_REGION_LENGTH__+0x54>
 868:	f6 01       	movw	r30, r12
 86a:	86 81       	ldd	r24, Z+6	; 0x06
 86c:	97 81       	ldd	r25, Z+7	; 0x07
 86e:	02 c0       	rjmp	.+4      	; 0x874 <__DATA_REGION_LENGTH__+0x74>
 870:	8f ef       	ldi	r24, 0xFF	; 255
 872:	9f ef       	ldi	r25, 0xFF	; 255
 874:	2b 96       	adiw	r28, 0x0b	; 11
 876:	e2 e1       	ldi	r30, 0x12	; 18
 878:	0c 94 0d 05 	jmp	0xa1a	; 0xa1a <__epilogue_restores__>

0000087c <strnlen_P>:
 87c:	fc 01       	movw	r30, r24
 87e:	05 90       	lpm	r0, Z+
 880:	61 50       	subi	r22, 0x01	; 1
 882:	70 40       	sbci	r23, 0x00	; 0
 884:	01 10       	cpse	r0, r1
 886:	d8 f7       	brcc	.-10     	; 0x87e <strnlen_P+0x2>
 888:	80 95       	com	r24
 88a:	90 95       	com	r25
 88c:	8e 0f       	add	r24, r30
 88e:	9f 1f       	adc	r25, r31
 890:	08 95       	ret

00000892 <strnlen>:
 892:	fc 01       	movw	r30, r24
 894:	61 50       	subi	r22, 0x01	; 1
 896:	70 40       	sbci	r23, 0x00	; 0
 898:	01 90       	ld	r0, Z+
 89a:	01 10       	cpse	r0, r1
 89c:	d8 f7       	brcc	.-10     	; 0x894 <strnlen+0x2>
 89e:	80 95       	com	r24
 8a0:	90 95       	com	r25
 8a2:	8e 0f       	add	r24, r30
 8a4:	9f 1f       	adc	r25, r31
 8a6:	08 95       	ret

000008a8 <fputc>:
 8a8:	0f 93       	push	r16
 8aa:	1f 93       	push	r17
 8ac:	cf 93       	push	r28
 8ae:	df 93       	push	r29
 8b0:	fb 01       	movw	r30, r22
 8b2:	23 81       	ldd	r18, Z+3	; 0x03
 8b4:	21 fd       	sbrc	r18, 1
 8b6:	03 c0       	rjmp	.+6      	; 0x8be <fputc+0x16>
 8b8:	8f ef       	ldi	r24, 0xFF	; 255
 8ba:	9f ef       	ldi	r25, 0xFF	; 255
 8bc:	2c c0       	rjmp	.+88     	; 0x916 <fputc+0x6e>
 8be:	22 ff       	sbrs	r18, 2
 8c0:	16 c0       	rjmp	.+44     	; 0x8ee <fputc+0x46>
 8c2:	46 81       	ldd	r20, Z+6	; 0x06
 8c4:	57 81       	ldd	r21, Z+7	; 0x07
 8c6:	24 81       	ldd	r18, Z+4	; 0x04
 8c8:	35 81       	ldd	r19, Z+5	; 0x05
 8ca:	42 17       	cp	r20, r18
 8cc:	53 07       	cpc	r21, r19
 8ce:	44 f4       	brge	.+16     	; 0x8e0 <fputc+0x38>
 8d0:	a0 81       	ld	r26, Z
 8d2:	b1 81       	ldd	r27, Z+1	; 0x01
 8d4:	9d 01       	movw	r18, r26
 8d6:	2f 5f       	subi	r18, 0xFF	; 255
 8d8:	3f 4f       	sbci	r19, 0xFF	; 255
 8da:	20 83       	st	Z, r18
 8dc:	31 83       	std	Z+1, r19	; 0x01
 8de:	8c 93       	st	X, r24
 8e0:	26 81       	ldd	r18, Z+6	; 0x06
 8e2:	37 81       	ldd	r19, Z+7	; 0x07
 8e4:	2f 5f       	subi	r18, 0xFF	; 255
 8e6:	3f 4f       	sbci	r19, 0xFF	; 255
 8e8:	26 83       	std	Z+6, r18	; 0x06
 8ea:	37 83       	std	Z+7, r19	; 0x07
 8ec:	14 c0       	rjmp	.+40     	; 0x916 <fputc+0x6e>
 8ee:	8b 01       	movw	r16, r22
 8f0:	ec 01       	movw	r28, r24
 8f2:	fb 01       	movw	r30, r22
 8f4:	00 84       	ldd	r0, Z+8	; 0x08
 8f6:	f1 85       	ldd	r31, Z+9	; 0x09
 8f8:	e0 2d       	mov	r30, r0
 8fa:	09 95       	icall
 8fc:	89 2b       	or	r24, r25
 8fe:	e1 f6       	brne	.-72     	; 0x8b8 <fputc+0x10>
 900:	d8 01       	movw	r26, r16
 902:	16 96       	adiw	r26, 0x06	; 6
 904:	8d 91       	ld	r24, X+
 906:	9c 91       	ld	r25, X
 908:	17 97       	sbiw	r26, 0x07	; 7
 90a:	01 96       	adiw	r24, 0x01	; 1
 90c:	16 96       	adiw	r26, 0x06	; 6
 90e:	8d 93       	st	X+, r24
 910:	9c 93       	st	X, r25
 912:	17 97       	sbiw	r26, 0x07	; 7
 914:	ce 01       	movw	r24, r28
 916:	df 91       	pop	r29
 918:	cf 91       	pop	r28
 91a:	1f 91       	pop	r17
 91c:	0f 91       	pop	r16
 91e:	08 95       	ret

00000920 <__ultoa_invert>:
 920:	fa 01       	movw	r30, r20
 922:	aa 27       	eor	r26, r26
 924:	28 30       	cpi	r18, 0x08	; 8
 926:	51 f1       	breq	.+84     	; 0x97c <__ultoa_invert+0x5c>
 928:	20 31       	cpi	r18, 0x10	; 16
 92a:	81 f1       	breq	.+96     	; 0x98c <__ultoa_invert+0x6c>
 92c:	e8 94       	clt
 92e:	6f 93       	push	r22
 930:	6e 7f       	andi	r22, 0xFE	; 254
 932:	6e 5f       	subi	r22, 0xFE	; 254
 934:	7f 4f       	sbci	r23, 0xFF	; 255
 936:	8f 4f       	sbci	r24, 0xFF	; 255
 938:	9f 4f       	sbci	r25, 0xFF	; 255
 93a:	af 4f       	sbci	r26, 0xFF	; 255
 93c:	b1 e0       	ldi	r27, 0x01	; 1
 93e:	3e d0       	rcall	.+124    	; 0x9bc <__ultoa_invert+0x9c>
 940:	b4 e0       	ldi	r27, 0x04	; 4
 942:	3c d0       	rcall	.+120    	; 0x9bc <__ultoa_invert+0x9c>
 944:	67 0f       	add	r22, r23
 946:	78 1f       	adc	r23, r24
 948:	89 1f       	adc	r24, r25
 94a:	9a 1f       	adc	r25, r26
 94c:	a1 1d       	adc	r26, r1
 94e:	68 0f       	add	r22, r24
 950:	79 1f       	adc	r23, r25
 952:	8a 1f       	adc	r24, r26
 954:	91 1d       	adc	r25, r1
 956:	a1 1d       	adc	r26, r1
 958:	6a 0f       	add	r22, r26
 95a:	71 1d       	adc	r23, r1
 95c:	81 1d       	adc	r24, r1
 95e:	91 1d       	adc	r25, r1
 960:	a1 1d       	adc	r26, r1
 962:	20 d0       	rcall	.+64     	; 0x9a4 <__ultoa_invert+0x84>
 964:	09 f4       	brne	.+2      	; 0x968 <__ultoa_invert+0x48>
 966:	68 94       	set
 968:	3f 91       	pop	r19
 96a:	2a e0       	ldi	r18, 0x0A	; 10
 96c:	26 9f       	mul	r18, r22
 96e:	11 24       	eor	r1, r1
 970:	30 19       	sub	r19, r0
 972:	30 5d       	subi	r19, 0xD0	; 208
 974:	31 93       	st	Z+, r19
 976:	de f6       	brtc	.-74     	; 0x92e <__ultoa_invert+0xe>
 978:	cf 01       	movw	r24, r30
 97a:	08 95       	ret
 97c:	46 2f       	mov	r20, r22
 97e:	47 70       	andi	r20, 0x07	; 7
 980:	40 5d       	subi	r20, 0xD0	; 208
 982:	41 93       	st	Z+, r20
 984:	b3 e0       	ldi	r27, 0x03	; 3
 986:	0f d0       	rcall	.+30     	; 0x9a6 <__ultoa_invert+0x86>
 988:	c9 f7       	brne	.-14     	; 0x97c <__ultoa_invert+0x5c>
 98a:	f6 cf       	rjmp	.-20     	; 0x978 <__ultoa_invert+0x58>
 98c:	46 2f       	mov	r20, r22
 98e:	4f 70       	andi	r20, 0x0F	; 15
 990:	40 5d       	subi	r20, 0xD0	; 208
 992:	4a 33       	cpi	r20, 0x3A	; 58
 994:	18 f0       	brcs	.+6      	; 0x99c <__ultoa_invert+0x7c>
 996:	49 5d       	subi	r20, 0xD9	; 217
 998:	31 fd       	sbrc	r19, 1
 99a:	40 52       	subi	r20, 0x20	; 32
 99c:	41 93       	st	Z+, r20
 99e:	02 d0       	rcall	.+4      	; 0x9a4 <__ultoa_invert+0x84>
 9a0:	a9 f7       	brne	.-22     	; 0x98c <__ultoa_invert+0x6c>
 9a2:	ea cf       	rjmp	.-44     	; 0x978 <__ultoa_invert+0x58>
 9a4:	b4 e0       	ldi	r27, 0x04	; 4
 9a6:	a6 95       	lsr	r26
 9a8:	97 95       	ror	r25
 9aa:	87 95       	ror	r24
 9ac:	77 95       	ror	r23
 9ae:	67 95       	ror	r22
 9b0:	ba 95       	dec	r27
 9b2:	c9 f7       	brne	.-14     	; 0x9a6 <__ultoa_invert+0x86>
 9b4:	00 97       	sbiw	r24, 0x00	; 0
 9b6:	61 05       	cpc	r22, r1
 9b8:	71 05       	cpc	r23, r1
 9ba:	08 95       	ret
 9bc:	9b 01       	movw	r18, r22
 9be:	ac 01       	movw	r20, r24
 9c0:	0a 2e       	mov	r0, r26
 9c2:	06 94       	lsr	r0
 9c4:	57 95       	ror	r21
 9c6:	47 95       	ror	r20
 9c8:	37 95       	ror	r19
 9ca:	27 95       	ror	r18
 9cc:	ba 95       	dec	r27
 9ce:	c9 f7       	brne	.-14     	; 0x9c2 <__ultoa_invert+0xa2>
 9d0:	62 0f       	add	r22, r18
 9d2:	73 1f       	adc	r23, r19
 9d4:	84 1f       	adc	r24, r20
 9d6:	95 1f       	adc	r25, r21
 9d8:	a0 1d       	adc	r26, r0
 9da:	08 95       	ret

000009dc <ccp_write_io>:
 9dc:	dc 01       	movw	r26, r24
 9de:	28 ed       	ldi	r18, 0xD8	; 216
 9e0:	20 93 34 00 	sts	0x0034, r18	; 0x800034 <crc8_table+0x7f75e6>
 9e4:	6c 93       	st	X, r22
 9e6:	08 95       	ret

000009e8 <__prologue_saves__>:
 9e8:	2f 92       	push	r2
 9ea:	3f 92       	push	r3
 9ec:	4f 92       	push	r4
 9ee:	5f 92       	push	r5
 9f0:	6f 92       	push	r6
 9f2:	7f 92       	push	r7
 9f4:	8f 92       	push	r8
 9f6:	9f 92       	push	r9
 9f8:	af 92       	push	r10
 9fa:	bf 92       	push	r11
 9fc:	cf 92       	push	r12
 9fe:	df 92       	push	r13
 a00:	ef 92       	push	r14
 a02:	ff 92       	push	r15
 a04:	0f 93       	push	r16
 a06:	1f 93       	push	r17
 a08:	cf 93       	push	r28
 a0a:	df 93       	push	r29
 a0c:	cd b7       	in	r28, 0x3d	; 61
 a0e:	de b7       	in	r29, 0x3e	; 62
 a10:	ca 1b       	sub	r28, r26
 a12:	db 0b       	sbc	r29, r27
 a14:	cd bf       	out	0x3d, r28	; 61
 a16:	de bf       	out	0x3e, r29	; 62
 a18:	09 94       	ijmp

00000a1a <__epilogue_restores__>:
 a1a:	2a 88       	ldd	r2, Y+18	; 0x12
 a1c:	39 88       	ldd	r3, Y+17	; 0x11
 a1e:	48 88       	ldd	r4, Y+16	; 0x10
 a20:	5f 84       	ldd	r5, Y+15	; 0x0f
 a22:	6e 84       	ldd	r6, Y+14	; 0x0e
 a24:	7d 84       	ldd	r7, Y+13	; 0x0d
 a26:	8c 84       	ldd	r8, Y+12	; 0x0c
 a28:	9b 84       	ldd	r9, Y+11	; 0x0b
 a2a:	aa 84       	ldd	r10, Y+10	; 0x0a
 a2c:	b9 84       	ldd	r11, Y+9	; 0x09
 a2e:	c8 84       	ldd	r12, Y+8	; 0x08
 a30:	df 80       	ldd	r13, Y+7	; 0x07
 a32:	ee 80       	ldd	r14, Y+6	; 0x06
 a34:	fd 80       	ldd	r15, Y+5	; 0x05
 a36:	0c 81       	ldd	r16, Y+4	; 0x04
 a38:	1b 81       	ldd	r17, Y+3	; 0x03
 a3a:	aa 81       	ldd	r26, Y+2	; 0x02
 a3c:	b9 81       	ldd	r27, Y+1	; 0x01
 a3e:	ce 0f       	add	r28, r30
 a40:	d1 1d       	adc	r29, r1
 a42:	cd bf       	out	0x3d, r28	; 61
 a44:	de bf       	out	0x3e, r29	; 62
 a46:	ed 01       	movw	r28, r26
 a48:	08 95       	ret

00000a4a <_exit>:
 a4a:	f8 94       	cli

00000a4c <__stop_program>:
 a4c:	ff cf       	rjmp	.-2      	; 0xa4c <__stop_program>
